#include <math.h>
#include <stdio.h>
#include <stdlib.h>
#include <string.h>


int main()
{
	int k, i, j;
	int n[100];
	double x[100], m[100], s[100];
	double sum[100], a[100];
	scanf("%d", &k);
	for(i = 0; i < k; i++){
		sum[i] = 0;
		scanf("%d", &n[i]);
		for(j = 0; j < n[i]; j++){
			scanf("%lf", &x[j]);
			sum[i] = sum[i] + x[j];
		}
		a[i] = sum[i] / n[i];
		m[i] = 0;
		for(j = 0; j < n[i]; j++){
			m[i] += (x[j] - a[i]) * (x[j] - a[i]);
		}
		s[i] = sqrt(m[i] / n[i]);
	}
	for(i = 0; i < k; i++){
		printf("%.5lf\n", s[i]);
	}
	return 0;
}
