; ModuleID = '38/459.c'
source_filename = "38/459.c"
target datalayout = "e-m:e-p270:32:32-p271:32:32-p272:64:64-i64:64-f80:128-n8:16:32:64-S128"
target triple = "x86_64-pc-linux-gnu"

@.str = private unnamed_addr constant [3 x i8] c"%d\00", align 1
@.str.1 = private unnamed_addr constant [4 x i8] c"%lf\00", align 1
@.str.2 = private unnamed_addr constant [7 x i8] c"%.5lf\0A\00", align 1

; Function Attrs: noinline nounwind uwtable
define dso_local i32 @main() #0 {
  %1 = alloca i32, align 4
  %2 = alloca i32, align 4
  %3 = alloca i32, align 4
  %4 = alloca i32, align 4
  %5 = alloca [100 x i32], align 16
  %6 = alloca [100 x double], align 16
  %7 = alloca [100 x double], align 16
  %8 = alloca [100 x double], align 16
  %9 = alloca [100 x double], align 16
  %10 = alloca [100 x double], align 16
  store i32 0, i32* %1, align 4
  %11 = call i32 (i8*, ...) @__isoc99_scanf(i8* getelementptr inbounds ([3 x i8], [3 x i8]* @.str, i64 0, i64 0), i32* %2)
  store i32 0, i32* %3, align 4
  br label %12

12:                                               ; preds = %118, %0
  %13 = load i32, i32* %3, align 4
  %14 = load i32, i32* %2, align 4
  %15 = icmp slt i32 %13, %14
  br i1 %15, label %16, label %121

16:                                               ; preds = %12
  %17 = load i32, i32* %3, align 4
  %18 = sext i32 %17 to i64
  %19 = getelementptr inbounds [100 x double], [100 x double]* %9, i64 0, i64 %18
  store double 0.000000e+00, double* %19, align 8
  %20 = load i32, i32* %3, align 4
  %21 = sext i32 %20 to i64
  %22 = getelementptr inbounds [100 x i32], [100 x i32]* %5, i64 0, i64 %21
  %23 = call i32 (i8*, ...) @__isoc99_scanf(i8* getelementptr inbounds ([3 x i8], [3 x i8]* @.str, i64 0, i64 0), i32* %22)
  store i32 0, i32* %4, align 4
  br label %24

24:                                               ; preds = %48, %16
  %25 = load i32, i32* %4, align 4
  %26 = load i32, i32* %3, align 4
  %27 = sext i32 %26 to i64
  %28 = getelementptr inbounds [100 x i32], [100 x i32]* %5, i64 0, i64 %27
  %29 = load i32, i32* %28, align 4
  %30 = icmp slt i32 %25, %29
  br i1 %30, label %31, label %51

31:                                               ; preds = %24
  %32 = load i32, i32* %4, align 4
  %33 = sext i32 %32 to i64
  %34 = getelementptr inbounds [100 x double], [100 x double]* %6, i64 0, i64 %33
  %35 = call i32 (i8*, ...) @__isoc99_scanf(i8* getelementptr inbounds ([4 x i8], [4 x i8]* @.str.1, i64 0, i64 0), double* %34)
  %36 = load i32, i32* %3, align 4
  %37 = sext i32 %36 to i64
  %38 = getelementptr inbounds [100 x double], [100 x double]* %9, i64 0, i64 %37
  %39 = load double, double* %38, align 8
  %40 = load i32, i32* %4, align 4
  %41 = sext i32 %40 to i64
  %42 = getelementptr inbounds [100 x double], [100 x double]* %6, i64 0, i64 %41
  %43 = load double, double* %42, align 8
  %44 = fadd double %39, %43
  %45 = load i32, i32* %3, align 4
  %46 = sext i32 %45 to i64
  %47 = getelementptr inbounds [100 x double], [100 x double]* %9, i64 0, i64 %46
  store double %44, double* %47, align 8
  br label %48

48:                                               ; preds = %31
  %49 = load i32, i32* %4, align 4
  %50 = add nsw i32 %49, 1
  store i32 %50, i32* %4, align 4
  br label %24

51:                                               ; preds = %24
  %52 = load i32, i32* %3, align 4
  %53 = sext i32 %52 to i64
  %54 = getelementptr inbounds [100 x double], [100 x double]* %9, i64 0, i64 %53
  %55 = load double, double* %54, align 8
  %56 = load i32, i32* %3, align 4
  %57 = sext i32 %56 to i64
  %58 = getelementptr inbounds [100 x i32], [100 x i32]* %5, i64 0, i64 %57
  %59 = load i32, i32* %58, align 4
  %60 = sitofp i32 %59 to double
  %61 = fdiv double %55, %60
  %62 = load i32, i32* %3, align 4
  %63 = sext i32 %62 to i64
  %64 = getelementptr inbounds [100 x double], [100 x double]* %10, i64 0, i64 %63
  store double %61, double* %64, align 8
  %65 = load i32, i32* %3, align 4
  %66 = sext i32 %65 to i64
  %67 = getelementptr inbounds [100 x double], [100 x double]* %7, i64 0, i64 %66
  store double 0.000000e+00, double* %67, align 8
  store i32 0, i32* %4, align 4
  br label %68

68:                                               ; preds = %100, %51
  %69 = load i32, i32* %4, align 4
  %70 = load i32, i32* %3, align 4
  %71 = sext i32 %70 to i64
  %72 = getelementptr inbounds [100 x i32], [100 x i32]* %5, i64 0, i64 %71
  %73 = load i32, i32* %72, align 4
  %74 = icmp slt i32 %69, %73
  br i1 %74, label %75, label %103

75:                                               ; preds = %68
  %76 = load i32, i32* %4, align 4
  %77 = sext i32 %76 to i64
  %78 = getelementptr inbounds [100 x double], [100 x double]* %6, i64 0, i64 %77
  %79 = load double, double* %78, align 8
  %80 = load i32, i32* %3, align 4
  %81 = sext i32 %80 to i64
  %82 = getelementptr inbounds [100 x double], [100 x double]* %10, i64 0, i64 %81
  %83 = load double, double* %82, align 8
  %84 = fsub double %79, %83
  %85 = load i32, i32* %4, align 4
  %86 = sext i32 %85 to i64
  %87 = getelementptr inbounds [100 x double], [100 x double]* %6, i64 0, i64 %86
  %88 = load double, double* %87, align 8
  %89 = load i32, i32* %3, align 4
  %90 = sext i32 %89 to i64
  %91 = getelementptr inbounds [100 x double], [100 x double]* %10, i64 0, i64 %90
  %92 = load double, double* %91, align 8
  %93 = fsub double %88, %92
  %94 = fmul double %84, %93
  %95 = load i32, i32* %3, align 4
  %96 = sext i32 %95 to i64
  %97 = getelementptr inbounds [100 x double], [100 x double]* %7, i64 0, i64 %96
  %98 = load double, double* %97, align 8
  %99 = fadd double %98, %94
  store double %99, double* %97, align 8
  br label %100

100:                                              ; preds = %75
  %101 = load i32, i32* %4, align 4
  %102 = add nsw i32 %101, 1
  store i32 %102, i32* %4, align 4
  br label %68

103:                                              ; preds = %68
  %104 = load i32, i32* %3, align 4
  %105 = sext i32 %104 to i64
  %106 = getelementptr inbounds [100 x double], [100 x double]* %7, i64 0, i64 %105
  %107 = load double, double* %106, align 8
  %108 = load i32, i32* %3, align 4
  %109 = sext i32 %108 to i64
  %110 = getelementptr inbounds [100 x i32], [100 x i32]* %5, i64 0, i64 %109
  %111 = load i32, i32* %110, align 4
  %112 = sitofp i32 %111 to double
  %113 = fdiv double %107, %112
  %114 = call double @sqrt(double %113) #3
  %115 = load i32, i32* %3, align 4
  %116 = sext i32 %115 to i64
  %117 = getelementptr inbounds [100 x double], [100 x double]* %8, i64 0, i64 %116
  store double %114, double* %117, align 8
  br label %118

118:                                              ; preds = %103
  %119 = load i32, i32* %3, align 4
  %120 = add nsw i32 %119, 1
  store i32 %120, i32* %3, align 4
  br label %12

121:                                              ; preds = %12
  store i32 0, i32* %3, align 4
  br label %122

122:                                              ; preds = %132, %121
  %123 = load i32, i32* %3, align 4
  %124 = load i32, i32* %2, align 4
  %125 = icmp slt i32 %123, %124
  br i1 %125, label %126, label %135

126:                                              ; preds = %122
  %127 = load i32, i32* %3, align 4
  %128 = sext i32 %127 to i64
  %129 = getelementptr inbounds [100 x double], [100 x double]* %8, i64 0, i64 %128
  %130 = load double, double* %129, align 8
  %131 = call i32 (i8*, ...) @printf(i8* getelementptr inbounds ([7 x i8], [7 x i8]* @.str.2, i64 0, i64 0), double %130)
  br label %132

132:                                              ; preds = %126
  %133 = load i32, i32* %3, align 4
  %134 = add nsw i32 %133, 1
  store i32 %134, i32* %3, align 4
  br label %122

135:                                              ; preds = %122
  ret i32 0
}

declare dso_local i32 @__isoc99_scanf(i8*, ...) #1

; Function Attrs: nounwind
declare dso_local double @sqrt(double) #2

declare dso_local i32 @printf(i8*, ...) #1


!llvm.module.flags = !{!0}
!llvm.ident = !{!1}

!0 = !{i32 1, !"wchar_size", i32 4}
!1 = !{!"clang version 10.0.0-4ubuntu1 "}
